Certificate:
    Data:
        Version: 3 (0x2)
        Serial Number:
            64:3b:9b:58:43:ad:f4:ca:18:60:35:01:29:64:eb:33
        Signature Algorithm: sha256WithRSAEncryption
        Issuer: CN=erebus.local
        Validity
            Not Before: Jan  3 16:13:46 2026 GMT
            Not After : Apr  7 16:13:46 2028 GMT
        Subject: CN=erebus.local
        Subject Public Key Info:
            Public Key Algorithm: rsaEncryption
                RSA Public-Key: (2048 bit)
                Modulus:
                    00:ae:9e:13:1f:35:20:dd:11:fb:55:62:e3:20:ed:
                    be:f4:2c:32:1a:1a:b1:c9:2d:93:34:21:7e:90:ad:
                    ee:ac:1f:a4:27:54:c7:1e:74:08:72:93:33:84:73:
                    b7:b2:67:4e:14:9e:67:f3:7d:5e:50:a3:8e:ba:b1:
                    8e:53:4d:28:51:ea:7b:b4:10:fa:94:ac:1c:9c:cc:
                    23:de:2f:f4:b5:79:4b:4a:fd:6e:ff:88:3d:c8:14:
                    bc:39:53:bb:0f:c8:94:9c:92:3b:a2:11:dc:fe:02:
                    7a:d5:5c:5f:27:8a:17:25:73:55:7d:1a:5c:80:75:
                    4c:52:9b:6f:44:99:60:f7:b7:bd:38:56:3a:d1:32:
                    f5:07:d2:f4:b5:9b:8c:ee:42:4d:b3:3f:4f:51:5b:
                    73:7c:6a:44:ca:0d:0e:be:c3:83:82:a2:7d:de:c2:
                    9e:4d:5b:1a:6a:d8:7f:29:69:dd:3b:4a:3f:e4:7d:
                    2c:3a:87:d2:7a:aa:55:a3:10:88:7b:31:0e:9b:d0:
                    2a:e4:43:c2:b3:93:83:29:c0:96:36:d6:a0:7e:70:
                    d7:1d:c6:67:77:a7:d4:42:26:e1:23:db:f3:6a:2a:
                    50:5a:26:e2:9e:e0:10:ff:76:e7:8d:fa:cd:41:97:
                    d7:4d:c3:72:9c:32:52:78:a3:f2:27:83:2c:27:0b:
                    8b:c5
                Exponent: 65537 (0x10001)
        X509v3 extensions:
            X509v3 Basic Constraints: 
                CA:FALSE
            X509v3 Subject Key Identifier: 
                7E:95:4D:0D:DF:87:3D:91:98:F4:0B:A5:AD:68:56:09:B5:56:31:CB
            X509v3 Authority Key Identifier: 
                keyid:A7:1D:0A:06:82:C6:1D:09:35:8E:52:7A:BC:BF:7F:85:CE:41:94:AE
                DirName:/CN=erebus.local
                serial:68:F9:CF:A8:88:4F:F0:12:86:67:22:79:52:A0:46:C2:2E:04:FA:F0

            X509v3 Extended Key Usage: 
                TLS Web Server Authentication
            X509v3 Key Usage: 
                Digital Signature, Key Encipherment
            X509v3 Subject Alternative Name: 
                DNS:erebus.local
    Signature Algorithm: sha256WithRSAEncryption
         25:29:6b:4c:c0:c5:82:46:1e:11:63:47:80:08:84:9e:b8:30:
         3f:8e:8b:87:d1:ff:08:9e:97:74:2f:e2:c9:4b:9c:2c:73:fb:
         3d:29:65:7f:ea:e4:6b:2f:93:84:6d:e5:0f:82:91:94:f9:e4:
         12:3e:3a:d7:1d:31:bd:1e:c1:3f:ed:4a:e9:96:a7:5b:40:97:
         a4:fb:ea:a0:7e:b4:03:1b:4b:de:cf:43:b2:c6:db:c8:97:9e:
         44:f4:ef:55:bb:a5:29:11:09:68:23:7d:b5:94:51:98:2b:0e:
         c0:08:fa:67:6d:c7:49:9e:0f:40:76:64:fc:60:33:03:54:83:
         0d:1c:9a:ed:c8:46:aa:c1:87:9b:05:a3:b7:69:20:4d:92:b0:
         ce:a3:71:12:87:45:0b:e1:ce:7b:36:4e:77:7f:f0:3f:ca:1f:
         1a:f3:af:b3:31:d2:3b:1c:15:b3:5b:ff:c1:d1:19:03:56:42:
         14:d1:f0:39:c4:a8:cf:0b:41:2b:b1:1e:17:4e:b5:03:38:f0:
         90:a1:f5:ba:c9:4a:b2:05:51:2a:c5:99:65:df:9c:6e:03:1c:
         6a:1b:d3:f0:3a:2c:27:8f:18:e6:e0:e6:7a:d2:f9:74:09:a7:
         b9:54:bf:46:a1:89:17:98:32:da:69:de:b7:c0:cf:ca:18:66:
         ca:3a:a8:15
-----BEGIN CERTIFICATE-----
MIIDdTCCAl2gAwIBAgIQZDubWEOt9MoYYDUBKWTrMzANBgkqhkiG9w0BAQsFADAX
MRUwEwYDVQQDDAxlcmVidXMubG9jYWwwHhcNMjYwMTAzMTYxMzQ2WhcNMjgwNDA3
MTYxMzQ2WjAXMRUwEwYDVQQDDAxlcmVidXMubG9jYWwwggEiMA0GCSqGSIb3DQEB
AQUAA4IBDwAwggEKAoIBAQCunhMfNSDdEftVYuMg7b70LDIaGrHJLZM0IX6Qre6s
H6QnVMcedAhykzOEc7eyZ04UnmfzfV5Qo466sY5TTShR6nu0EPqUrByczCPeL/S1
eUtK/W7/iD3IFLw5U7sPyJSckjuiEdz+AnrVXF8nihclc1V9GlyAdUxSm29EmWD3
t704VjrRMvUH0vS1m4zuQk2zP09RW3N8akTKDQ6+w4OCon3ewp5NWxpq2H8pad07
Sj/kfSw6h9J6qlWjEIh7MQ6b0CrkQ8Kzk4MpwJY21qB+cNcdxmd3p9RCJuEj2/Nq
KlBaJuKe4BD/dueN+s1Bl9dNw3KcMlJ4o/IngywnC4vFAgMBAAGjgbwwgbkwCQYD
VR0TBAIwADAdBgNVHQ4EFgQUfpVNDd+HPZGY9AulrWhWCbVWMcswUgYDVR0jBEsw
SYAUpx0KBoLGHQk1jlJ6vL9/hc5BlK6hG6QZMBcxFTATBgNVBAMMDGVyZWJ1cy5s
b2NhbIIUaPnPqIhP8BKGZyJ5UqBGwi4E+vAwEwYDVR0lBAwwCgYIKwYBBQUHAwEw
CwYDVR0PBAQDAgWgMBcGA1UdEQQQMA6CDGVyZWJ1cy5sb2NhbDANBgkqhkiG9w0B
AQsFAAOCAQEAJSlrTMDFgkYeEWNHgAiEnrgwP46Lh9H/CJ6XdC/iyUucLHP7PSll
f+rkay+ThG3lD4KRlPnkEj461x0xvR7BP+1K6ZanW0CXpPvqoH60AxtL3s9Dssbb
yJeeRPTvVbulKREJaCN9tZRRmCsOwAj6Z23HSZ4PQHZk/GAzA1SDDRya7chGqsGH
mwWjt2kgTZKwzqNxEodFC+HOezZOd3/wP8ofGvOvszHSOxwVs1v/wdEZA1ZCFNHw
OcSozwtBK7EeF061AzjwkKH1uslKsgVRKsWZZd+cbgMcahvT8DosJ48Y5uDmetL5
dAmnuVS/RqGJF5gy2mnet8DPyhhmyjqoFQ==
-----END CERTIFICATE-----
