Certificate:
    Data:
        Version: 3 (0x2)
        Serial Number:
            6e:a2:90:22:a5:a3:f2:26:a3:4b:d7:25:90:5f:68:01
        Signature Algorithm: sha256WithRSAEncryption
        Issuer: CN=erebus.local
        Validity
            Not Before: Jan  3 16:13:53 2026 GMT
            Not After : Apr  7 16:13:53 2028 GMT
        Subject: CN=erebus
        Subject Public Key Info:
            Public Key Algorithm: rsaEncryption
                RSA Public-Key: (2048 bit)
                Modulus:
                    00:b6:22:fc:79:5e:b5:e7:ed:ac:a8:06:66:40:35:
                    4f:88:d6:ca:27:44:e3:b8:48:4d:cf:32:9c:7f:50:
                    d2:03:ad:7c:02:d2:88:18:64:8e:09:09:36:6f:f9:
                    5b:e9:7c:4a:f0:0b:e8:1e:3e:7a:f6:d3:6c:38:c7:
                    62:a2:c4:f8:6a:a5:35:e2:1b:12:4a:1d:ec:f3:2e:
                    a7:f2:7a:af:60:41:49:23:f1:28:38:f1:63:f0:25:
                    59:43:03:95:da:1c:06:4d:38:fb:2c:9f:42:16:be:
                    62:66:c1:dd:7e:ec:20:d3:f4:b0:64:b3:4e:32:71:
                    c6:1e:e2:b8:70:a8:63:41:08:b9:08:c2:7d:8a:6d:
                    8b:cf:8d:19:09:a4:f6:9c:09:28:86:8a:e9:c0:e7:
                    d9:d7:4c:b6:73:08:5e:30:85:5c:cc:9d:2f:b0:3f:
                    f8:67:f3:25:e0:f4:d5:3b:30:9c:7d:4a:cb:e6:9e:
                    11:e9:b6:d8:bb:f6:d8:8a:70:97:eb:4d:23:f4:b1:
                    9f:f7:40:f8:eb:90:e5:84:78:16:0c:ab:34:10:4c:
                    3f:d2:57:1e:96:83:3c:1c:55:6b:d1:3e:a9:df:5d:
                    13:11:b7:ca:5b:ca:f2:19:1c:34:b9:88:c8:66:cf:
                    52:54:56:36:1b:81:ea:03:5f:9f:b8:ee:f6:09:e1:
                    e9:af
                Exponent: 65537 (0x10001)
        X509v3 extensions:
            X509v3 Basic Constraints: 
                CA:FALSE
            X509v3 Subject Key Identifier: 
                E0:9C:E3:3D:5F:B5:78:31:26:4E:56:F2:A6:8A:51:46:AE:0C:D5:EE
            X509v3 Authority Key Identifier: 
                keyid:A7:1D:0A:06:82:C6:1D:09:35:8E:52:7A:BC:BF:7F:85:CE:41:94:AE
                DirName:/CN=erebus.local
                serial:68:F9:CF:A8:88:4F:F0:12:86:67:22:79:52:A0:46:C2:2E:04:FA:F0

            X509v3 Extended Key Usage: 
                TLS Web Client Authentication
            X509v3 Key Usage: 
                Digital Signature
    Signature Algorithm: sha256WithRSAEncryption
         4b:9e:4a:b2:c6:aa:14:fc:34:e5:f3:4a:3f:9c:80:63:ad:a5:
         bc:19:d2:f9:28:00:57:4e:c5:b9:e5:eb:4f:a3:be:c9:6e:44:
         8a:77:7b:4a:84:12:a7:5e:11:c2:b2:a7:45:d7:9a:4b:7e:e4:
         9a:a3:a3:32:3e:52:a7:8d:85:50:0f:e5:fb:d9:fb:3f:b8:81:
         56:59:48:74:66:c5:6e:53:c2:9f:ab:fa:03:e1:dd:d0:12:12:
         c5:fc:3d:e9:06:6f:be:f0:2f:9d:56:db:f4:97:78:0e:84:3c:
         c1:5c:3a:d9:48:11:ed:9f:9e:39:8e:14:9d:22:8d:16:2a:3b:
         5a:30:f7:0a:02:02:b4:41:52:7a:13:3e:7c:a5:dc:94:ac:89:
         e8:89:8c:b9:51:02:87:41:78:41:0b:bf:c9:8d:52:95:1a:50:
         62:c3:29:8e:92:9b:3b:e8:5e:ac:85:fd:be:c5:e7:3f:ee:e7:
         a8:5c:1c:41:22:eb:0d:8e:18:b3:ea:76:10:4c:05:d4:fe:1e:
         7e:a9:67:d3:e0:6d:46:41:4d:a1:78:00:7e:68:69:fe:16:16:
         f5:ab:6d:5c:72:bc:6c:e6:5b:18:cd:bc:55:74:75:d7:f3:cc:
         4b:3e:62:f4:78:32:ed:bb:9b:b7:88:d9:21:14:e7:0c:af:15:
         1a:e9:63:9f
-----BEGIN CERTIFICATE-----
MIIDVjCCAj6gAwIBAgIQbqKQIqWj8iajS9clkF9oATANBgkqhkiG9w0BAQsFADAX
MRUwEwYDVQQDDAxlcmVidXMubG9jYWwwHhcNMjYwMTAzMTYxMzUzWhcNMjgwNDA3
MTYxMzUzWjARMQ8wDQYDVQQDDAZlcmVidXMwggEiMA0GCSqGSIb3DQEBAQUAA4IB
DwAwggEKAoIBAQC2Ivx5XrXn7ayoBmZANU+I1sonROO4SE3PMpx/UNIDrXwC0ogY
ZI4JCTZv+VvpfErwC+gePnr202w4x2KixPhqpTXiGxJKHezzLqfyeq9gQUkj8Sg4
8WPwJVlDA5XaHAZNOPssn0IWvmJmwd1+7CDT9LBks04yccYe4rhwqGNBCLkIwn2K
bYvPjRkJpPacCSiGiunA59nXTLZzCF4whVzMnS+wP/hn8yXg9NU7MJx9SsvmnhHp
tti79tiKcJfrTSP0sZ/3QPjrkOWEeBYMqzQQTD/SVx6WgzwcVWvRPqnfXRMRt8pb
yvIZHDS5iMhmz1JUVjYbgeoDX5+47vYJ4emvAgMBAAGjgaMwgaAwCQYDVR0TBAIw
ADAdBgNVHQ4EFgQU4JzjPV+1eDEmTlbypopRRq4M1e4wUgYDVR0jBEswSYAUpx0K
BoLGHQk1jlJ6vL9/hc5BlK6hG6QZMBcxFTATBgNVBAMMDGVyZWJ1cy5sb2NhbIIU
aPnPqIhP8BKGZyJ5UqBGwi4E+vAwEwYDVR0lBAwwCgYIKwYBBQUHAwIwCwYDVR0P
BAQDAgeAMA0GCSqGSIb3DQEBCwUAA4IBAQBLnkqyxqoU/DTl80o/nIBjraW8GdL5
KABXTsW55etPo77JbkSKd3tKhBKnXhHCsqdF15pLfuSao6MyPlKnjYVQD+X72fs/
uIFWWUh0ZsVuU8Kfq/oD4d3QEhLF/D3pBm++8C+dVtv0l3gOhDzBXDrZSBHtn545
jhSdIo0WKjtaMPcKAgK0QVJ6Ez58pdyUrInoiYy5UQKHQXhBC7/JjVKVGlBiwymO
kps76F6shf2+xec/7ueoXBxBIusNjhiz6nYQTAXU/h5+qWfT4G1GQU2heAB+aGn+
Fhb1q21ccrxs5lsYzbxVdHXX88xLPmL0eDLtu5u3iNkhFOcMrxUa6WOf
-----END CERTIFICATE-----
